target datalayout = "e-m:e-p270:32:32-p271:32:32-p272:64:64-i64:64-i128:128-f80:128-n8:16:32:64-S128"
target triple = "x86_64-pc-linux-gnu"

%struct.OSQPSolver = type { ptr, ptr, ptr, ptr }
%struct.OSQPWorkspace_ = type { ptr, ptr, ptr, ptr, ptr, ptr, ptr, ptr, ptr, ptr, ptr, ptr, ptr, ptr, ptr, ptr, ptr, ptr, ptr, ptr, ptr, ptr, ptr, ptr, ptr, ptr, double, double, double, ptr, i64, i64, i64, i64, ptr }
%struct.OSQPData = type { i64, i64, ptr, ptr, ptr, ptr, ptr }
%struct.OSQPSettings = type { i64, i32, i64, i64, i64, i64, i64, i64, double, i64, double, double, i64, i64, double, i32, i64, i64, double, double, i64, double, double, double, double, i64, i64, double, double, i64 }
%struct.OSQPInfo = type { [32 x i8], i64, i64, double, double, double, i64, i64, double, double, double, double, double, double }
%struct.OSQPScaling = type { double, ptr, ptr, double, ptr, ptr }
%struct.OSQPPolish = type { ptr, i64, ptr, ptr, ptr, ptr, double, double, double }

; Function Attrs: nounwind uwtable
define double @compute_obj_val(ptr noundef %0, ptr noundef %1) #0 {
  %3 = alloca ptr, align 8
  %4 = alloca ptr, align 8
  %5 = alloca double, align 8
  %6 = alloca ptr, align 8
  store ptr %0, ptr %3, align 8
  store ptr %1, ptr %4, align 8
  %7 = load ptr, ptr %3, align 8
  %8 = getelementptr inbounds %struct.OSQPSolver, ptr %7, i32 0, i32 3
  %9 = load ptr, ptr %8, align 8
  store ptr %9, ptr %6, align 8
  %10 = load ptr, ptr %6, align 8
  %11 = getelementptr inbounds %struct.OSQPWorkspace_, ptr %10, i32 0, i32 15
  %12 = load ptr, ptr %11, align 8
  %13 = load ptr, ptr %4, align 8
  %14 = call double @OSQPVectorf_dot_prod(ptr noundef %12, ptr noundef %13)
  %15 = load ptr, ptr %6, align 8
  %16 = getelementptr inbounds %struct.OSQPWorkspace_, ptr %15, i32 0, i32 0
  %17 = load ptr, ptr %16, align 8
  %18 = getelementptr inbounds %struct.OSQPData, ptr %17, i32 0, i32 4
  %19 = load ptr, ptr %18, align 8
  %20 = load ptr, ptr %4, align 8
  %21 = call double @OSQPVectorf_dot_prod(ptr noundef %19, ptr noundef %20)
  %22 = call double @llvm.fmuladd.f64(double 5.000000e-01, double %14, double %21)
  store double %22, ptr %5, align 8
  %23 = load ptr, ptr %3, align 8
  %24 = getelementptr inbounds %struct.OSQPSolver, ptr %23, i32 0, i32 0
  %25 = load ptr, ptr %24, align 8
  %26 = getelementptr inbounds %struct.OSQPSettings, ptr %25, i32 0, i32 6
  %27 = load i64, ptr %26, align 8
  %28 = icmp ne i64 %27, 0
  br i1 %28, label %29, label %37

29:                                               ; preds = %2
  %30 = load ptr, ptr %6, align 8
  %31 = getelementptr inbounds %struct.OSQPWorkspace_, ptr %30, i32 0, i32 25
  %32 = load ptr, ptr %31, align 8
  %33 = getelementptr inbounds %struct.OSQPScaling, ptr %32, i32 0, i32 3
  %34 = load double, ptr %33, align 8
  %35 = load double, ptr %5, align 8
  %36 = fmul double %35, %34
  store double %36, ptr %5, align 8
  br label %37

37:                                               ; preds = %29, %2
  %38 = load double, ptr %5, align 8
  ret double %38
}

; Function Attrs: nounwind uwtable
define internal double @compute_dual_res(ptr noundef %0, ptr noundef %1, ptr noundef %2) #0 {
  %4 = alloca ptr, align 8
  %5 = alloca ptr, align 8
  %6 = alloca ptr, align 8
  %7 = alloca ptr, align 8
  %8 = alloca ptr, align 8
  %9 = alloca double, align 8
  store ptr %0, ptr %4, align 8
  store ptr %1, ptr %5, align 8
  store ptr %2, ptr %6, align 8
  %10 = load ptr, ptr %4, align 8
  %11 = getelementptr inbounds %struct.OSQPSolver, ptr %10, i32 0, i32 0
  %12 = load ptr, ptr %11, align 8
  store ptr %12, ptr %7, align 8
  %13 = load ptr, ptr %4, align 8
  %14 = getelementptr inbounds %struct.OSQPSolver, ptr %13, i32 0, i32 3
  %15 = load ptr, ptr %14, align 8
  store ptr %15, ptr %8, align 8
  %16 = load ptr, ptr %8, align 8
  %17 = getelementptr inbounds %struct.OSQPWorkspace_, ptr %16, i32 0, i32 12
  %18 = load ptr, ptr %17, align 8
  %19 = load ptr, ptr %8, align 8
  %20 = getelementptr inbounds %struct.OSQPWorkspace_, ptr %19, i32 0, i32 0
  %21 = load ptr, ptr %20, align 8
  %22 = getelementptr inbounds %struct.OSQPData, ptr %21, i32 0, i32 4
  %23 = load ptr, ptr %22, align 8
  call void @OSQPVectorf_copy(ptr noundef %18, ptr noundef %23)
  %24 = load ptr, ptr %8, align 8
  %25 = getelementptr inbounds %struct.OSQPWorkspace_, ptr %24, i32 0, i32 0
  %26 = load ptr, ptr %25, align 8
  %27 = getelementptr inbounds %struct.OSQPData, ptr %26, i32 0, i32 2
  %28 = load ptr, ptr %27, align 8
  %29 = load ptr, ptr %5, align 8
  %30 = load ptr, ptr %8, align 8
  %31 = getelementptr inbounds %struct.OSQPWorkspace_, ptr %30, i32 0, i32 15
  %32 = load ptr, ptr %31, align 8
  call void @OSQPMatrix_Axpy(ptr noundef %28, ptr noundef %29, ptr noundef %32, double noundef 1.000000e+00, double noundef 0.000000e+00)
  %33 = load ptr, ptr %8, align 8
  %34 = getelementptr inbounds %struct.OSQPWorkspace_, ptr %33, i32 0, i32 12
  %35 = load ptr, ptr %34, align 8
  %36 = load ptr, ptr %8, align 8
  %37 = getelementptr inbounds %struct.OSQPWorkspace_, ptr %36, i32 0, i32 12
  %38 = load ptr, ptr %37, align 8
  %39 = load ptr, ptr %8, align 8
  %40 = getelementptr inbounds %struct.OSQPWorkspace_, ptr %39, i32 0, i32 15
  %41 = load ptr, ptr %40, align 8
  call void @OSQPVectorf_plus(ptr noundef %35, ptr noundef %38, ptr noundef %41)
  %42 = load ptr, ptr %8, align 8
  %43 = getelementptr inbounds %struct.OSQPWorkspace_, ptr %42, i32 0, i32 0
  %44 = load ptr, ptr %43, align 8
  %45 = getelementptr inbounds %struct.OSQPData, ptr %44, i32 0, i32 1
  %46 = load i64, ptr %45, align 8
  %47 = icmp ne i64 %46, 0
  br i1 %47, label %48, label %67

48:                                               ; preds = %3
  %49 = load ptr, ptr %8, align 8
  %50 = getelementptr inbounds %struct.OSQPWorkspace_, ptr %49, i32 0, i32 0
  %51 = load ptr, ptr %50, align 8
  %52 = getelementptr inbounds %struct.OSQPData, ptr %51, i32 0, i32 3
  %53 = load ptr, ptr %52, align 8
  %54 = load ptr, ptr %6, align 8
  %55 = load ptr, ptr %8, align 8
  %56 = getelementptr inbounds %struct.OSQPWorkspace_, ptr %55, i32 0, i32 16
  %57 = load ptr, ptr %56, align 8
  call void @OSQPMatrix_Atxpy(ptr noundef %53, ptr noundef %54, ptr noundef %57, double noundef 1.000000e+00, double noundef 0.000000e+00)
  %58 = load ptr, ptr %8, align 8
  %59 = getelementptr inbounds %struct.OSQPWorkspace_, ptr %58, i32 0, i32 12
  %60 = load ptr, ptr %59, align 8
  %61 = load ptr, ptr %8, align 8
  %62 = getelementptr inbounds %struct.OSQPWorkspace_, ptr %61, i32 0, i32 12
  %63 = load ptr, ptr %62, align 8
  %64 = load ptr, ptr %8, align 8
  %65 = getelementptr inbounds %struct.OSQPWorkspace_, ptr %64, i32 0, i32 16
  %66 = load ptr, ptr %65, align 8
  call void @OSQPVectorf_plus(ptr noundef %60, ptr noundef %63, ptr noundef %66)
  br label %67

67:                                               ; preds = %48, %3
  %68 = load ptr, ptr %8, align 8
  %69 = getelementptr inbounds %struct.OSQPWorkspace_, ptr %68, i32 0, i32 12
  %70 = load ptr, ptr %69, align 8
  %71 = call double @OSQPVectorf_norm_inf(ptr noundef %70)
  %72 = load ptr, ptr %8, align 8
  %73 = getelementptr inbounds %struct.OSQPWorkspace_, ptr %72, i32 0, i32 27
  store double %71, ptr %73, align 8
  %74 = load ptr, ptr %7, align 8
  %75 = getelementptr inbounds %struct.OSQPSettings, ptr %74, i32 0, i32 6
  %76 = load i64, ptr %75, align 8
  %77 = icmp ne i64 %76, 0
  br i1 %77, label %78, label %99

78:                                               ; preds = %67
  %79 = load ptr, ptr %7, align 8
  %80 = getelementptr inbounds %struct.OSQPSettings, ptr %79, i32 0, i32 25
  %81 = load i64, ptr %80, align 8
  %82 = icmp ne i64 %81, 0
  br i1 %82, label %99, label %83

83:                                               ; preds = %78
  %84 = load ptr, ptr %8, align 8
  %85 = getelementptr inbounds %struct.OSQPWorkspace_, ptr %84, i32 0, i32 25
  %86 = load ptr, ptr %85, align 8
  %87 = getelementptr inbounds %struct.OSQPScaling, ptr %86, i32 0, i32 3
  %88 = load double, ptr %87, align 8
  %89 = load ptr, ptr %8, align 8
  %90 = getelementptr inbounds %struct.OSQPWorkspace_, ptr %89, i32 0, i32 25
  %91 = load ptr, ptr %90, align 8
  %92 = getelementptr inbounds %struct.OSQPScaling, ptr %91, i32 0, i32 4
  %93 = load ptr, ptr %92, align 8
  %94 = load ptr, ptr %8, align 8
  %95 = getelementptr inbounds %struct.OSQPWorkspace_, ptr %94, i32 0, i32 12
  %96 = load ptr, ptr %95, align 8
  %97 = call double @OSQPVectorf_scaled_norm_inf(ptr noundef %93, ptr noundef %96)
  %98 = fmul double %88, %97
  store double %98, ptr %9, align 8
  br label %103

99:                                               ; preds = %78, %67
  %100 = load ptr, ptr %8, align 8
  %101 = getelementptr inbounds %struct.OSQPWorkspace_, ptr %100, i32 0, i32 27
  %102 = load double, ptr %101, align 8
  store double %102, ptr %9, align 8
  br label %103

103:                                              ; preds = %99, %83
  %104 = load double, ptr %9, align 8
  ret double %104
}

; Function Attrs: nounwind uwtable
define internal double @compute_prim_res(ptr noundef %0, ptr noundef %1, ptr noundef %2) #0 {
  %4 = alloca ptr, align 8
  %5 = alloca ptr, align 8
  %6 = alloca ptr, align 8
  %7 = alloca ptr, align 8
  %8 = alloca ptr, align 8
  %9 = alloca double, align 8
  store ptr %0, ptr %4, align 8
  store ptr %1, ptr %5, align 8
  store ptr %2, ptr %6, align 8
  %10 = load ptr, ptr %4, align 8
  %11 = getelementptr inbounds %struct.OSQPSolver, ptr %10, i32 0, i32 0
  %12 = load ptr, ptr %11, align 8
  store ptr %12, ptr %7, align 8
  %13 = load ptr, ptr %4, align 8
  %14 = getelementptr inbounds %struct.OSQPSolver, ptr %13, i32 0, i32 3
  %15 = load ptr, ptr %14, align 8
  store ptr %15, ptr %8, align 8
  %16 = load ptr, ptr %8, align 8
  %17 = getelementptr inbounds %struct.OSQPWorkspace_, ptr %16, i32 0, i32 0
  %18 = load ptr, ptr %17, align 8
  %19 = getelementptr inbounds %struct.OSQPData, ptr %18, i32 0, i32 3
  %20 = load ptr, ptr %19, align 8
  %21 = load ptr, ptr %5, align 8
  %22 = load ptr, ptr %8, align 8
  %23 = getelementptr inbounds %struct.OSQPWorkspace_, ptr %22, i32 0, i32 14
  %24 = load ptr, ptr %23, align 8
  call void @OSQPMatrix_Axpy(ptr noundef %20, ptr noundef %21, ptr noundef %24, double noundef 1.000000e+00, double noundef 0.000000e+00)
  %25 = load ptr, ptr %8, align 8
  %26 = getelementptr inbounds %struct.OSQPWorkspace_, ptr %25, i32 0, i32 13
  %27 = load ptr, ptr %26, align 8
  %28 = load ptr, ptr %8, align 8
  %29 = getelementptr inbounds %struct.OSQPWorkspace_, ptr %28, i32 0, i32 14
  %30 = load ptr, ptr %29, align 8
  %31 = load ptr, ptr %6, align 8
  call void @OSQPVectorf_minus(ptr noundef %27, ptr noundef %30, ptr noundef %31)
  %32 = load ptr, ptr %8, align 8
  %33 = getelementptr inbounds %struct.OSQPWorkspace_, ptr %32, i32 0, i32 13
  %34 = load ptr, ptr %33, align 8
  %35 = call double @OSQPVectorf_norm_inf(ptr noundef %34)
  %36 = load ptr, ptr %8, align 8
  %37 = getelementptr inbounds %struct.OSQPWorkspace_, ptr %36, i32 0, i32 26
  store double %35, ptr %37, align 8
  %38 = load ptr, ptr %7, align 8
  %39 = getelementptr inbounds %struct.OSQPSettings, ptr %38, i32 0, i32 6
  %40 = load i64, ptr %39, align 8
  %41 = icmp ne i64 %40, 0
  br i1 %41, label %42, label %57

42:                                               ; preds = %3
  %43 = load ptr, ptr %7, align 8
  %44 = getelementptr inbounds %struct.OSQPSettings, ptr %43, i32 0, i32 25
  %45 = load i64, ptr %44, align 8
  %46 = icmp ne i64 %45, 0
  br i1 %46, label %57, label %47

47:                                               ; preds = %42
  %48 = load ptr, ptr %8, align 8
  %49 = getelementptr inbounds %struct.OSQPWorkspace_, ptr %48, i32 0, i32 25
  %50 = load ptr, ptr %49, align 8
  %51 = getelementptr inbounds %struct.OSQPScaling, ptr %50, i32 0, i32 5
  %52 = load ptr, ptr %51, align 8
  %53 = load ptr, ptr %8, align 8
  %54 = getelementptr inbounds %struct.OSQPWorkspace_, ptr %53, i32 0, i32 13
  %55 = load ptr, ptr %54, align 8
  %56 = call double @OSQPVectorf_scaled_norm_inf(ptr noundef %52, ptr noundef %55)
  store double %56, ptr %9, align 8
  br label %61

57:                                               ; preds = %42, %3
  %58 = load ptr, ptr %8, align 8
  %59 = getelementptr inbounds %struct.OSQPWorkspace_, ptr %58, i32 0, i32 26
  %60 = load double, ptr %59, align 8
  store double %60, ptr %9, align 8
  br label %61

61:                                               ; preds = %57, %47
  %62 = load double, ptr %9, align 8
  ret double %62
}

; Function Attrs: nounwind uwtable
define void @update_info(ptr noundef %0, i64 noundef %1, i64 noundef %2, i64 noundef %3) #0 {
  %5 = alloca ptr, align 8
  %6 = alloca i64, align 8
  %7 = alloca i64, align 8
  %8 = alloca i64, align 8
  %9 = alloca ptr, align 8
  %10 = alloca ptr, align 8
  %11 = alloca ptr, align 8
  %12 = alloca ptr, align 8
  %13 = alloca ptr, align 8
  %14 = alloca ptr, align 8
  %15 = alloca ptr, align 8
  %16 = alloca ptr, align 8
  %17 = alloca ptr, align 8
  store ptr %0, ptr %5, align 8
  store i64 %1, ptr %6, align 8
  store i64 %2, ptr %7, align 8
  store i64 %3, ptr %8, align 8
  %18 = load ptr, ptr %5, align 8
  %19 = getelementptr inbounds %struct.OSQPSolver, ptr %18, i32 0, i32 2
  %20 = load ptr, ptr %19, align 8
  store ptr %20, ptr %15, align 8
  %21 = load ptr, ptr %5, align 8
  %22 = getelementptr inbounds %struct.OSQPSolver, ptr %21, i32 0, i32 3
  %23 = load ptr, ptr %22, align 8
  store ptr %23, ptr %16, align 8
  %24 = load i64, ptr %8, align 8
  %25 = icmp ne i64 %24, 0
  br i1 %25, label %26, label %56

26:                                               ; preds = %4
  %27 = load ptr, ptr %16, align 8
  %28 = getelementptr inbounds %struct.OSQPWorkspace_, ptr %27, i32 0, i32 2
  %29 = load ptr, ptr %28, align 8
  %30 = getelementptr inbounds %struct.OSQPPolish, ptr %29, i32 0, i32 3
  %31 = load ptr, ptr %30, align 8
  store ptr %31, ptr %9, align 8
  %32 = load ptr, ptr %16, align 8
  %33 = getelementptr inbounds %struct.OSQPWorkspace_, ptr %32, i32 0, i32 2
  %34 = load ptr, ptr %33, align 8
  %35 = getelementptr inbounds %struct.OSQPPolish, ptr %34, i32 0, i32 5
  %36 = load ptr, ptr %35, align 8
  store ptr %36, ptr %11, align 8
  %37 = load ptr, ptr %16, align 8
  %38 = getelementptr inbounds %struct.OSQPWorkspace_, ptr %37, i32 0, i32 2
  %39 = load ptr, ptr %38, align 8
  %40 = getelementptr inbounds %struct.OSQPPolish, ptr %39, i32 0, i32 4
  %41 = load ptr, ptr %40, align 8
  store ptr %41, ptr %10, align 8
  %42 = load ptr, ptr %16, align 8
  %43 = getelementptr inbounds %struct.OSQPWorkspace_, ptr %42, i32 0, i32 2
  %44 = load ptr, ptr %43, align 8
  %45 = getelementptr inbounds %struct.OSQPPolish, ptr %44, i32 0, i32 6
  store ptr %45, ptr %12, align 8
  %46 = load ptr, ptr %16, align 8
  %47 = getelementptr inbounds %struct.OSQPWorkspace_, ptr %46, i32 0, i32 2
  %48 = load ptr, ptr %47, align 8
  %49 = getelementptr inbounds %struct.OSQPPolish, ptr %48, i32 0, i32 7
  store ptr %49, ptr %13, align 8
  %50 = load ptr, ptr %16, align 8
  %51 = getelementptr inbounds %struct.OSQPWorkspace_, ptr %50, i32 0, i32 2
  %52 = load ptr, ptr %51, align 8
  %53 = getelementptr inbounds %struct.OSQPPolish, ptr %52, i32 0, i32 8
  store ptr %53, ptr %14, align 8
  %54 = load ptr, ptr %15, align 8
  %55 = getelementptr inbounds %struct.OSQPInfo, ptr %54, i32 0, i32 12
  store ptr %55, ptr %17, align 8
  br label %77

56:                                               ; preds = %4
  %57 = load ptr, ptr %16, align 8
  %58 = getelementptr inbounds %struct.OSQPWorkspace_, ptr %57, i32 0, i32 6
  %59 = load ptr, ptr %58, align 8
  store ptr %59, ptr %9, align 8
  %60 = load ptr, ptr %16, align 8
  %61 = getelementptr inbounds %struct.OSQPWorkspace_, ptr %60, i32 0, i32 7
  %62 = load ptr, ptr %61, align 8
  store ptr %62, ptr %11, align 8
  %63 = load ptr, ptr %16, align 8
  %64 = getelementptr inbounds %struct.OSQPWorkspace_, ptr %63, i32 0, i32 8
  %65 = load ptr, ptr %64, align 8
  store ptr %65, ptr %10, align 8
  %66 = load ptr, ptr %15, align 8
  %67 = getelementptr inbounds %struct.OSQPInfo, ptr %66, i32 0, i32 3
  store ptr %67, ptr %12, align 8
  %68 = load ptr, ptr %15, align 8
  %69 = getelementptr inbounds %struct.OSQPInfo, ptr %68, i32 0, i32 4
  store ptr %69, ptr %13, align 8
  %70 = load ptr, ptr %15, align 8
  %71 = getelementptr inbounds %struct.OSQPInfo, ptr %70, i32 0, i32 5
  store ptr %71, ptr %14, align 8
  %72 = load i64, ptr %6, align 8
  %73 = load ptr, ptr %15, align 8
  %74 = getelementptr inbounds %struct.OSQPInfo, ptr %73, i32 0, i32 6
  store i64 %72, ptr %74, align 8
  %75 = load ptr, ptr %15, align 8
  %76 = getelementptr inbounds %struct.OSQPInfo, ptr %75, i32 0, i32 10
  store ptr %76, ptr %17, align 8
  br label %77

77:                                               ; preds = %56, %26
  %78 = load ptr, ptr %16, align 8
  %79 = getelementptr inbounds %struct.OSQPWorkspace_, ptr %78, i32 0, i32 0
  %80 = load ptr, ptr %79, align 8
  %81 = getelementptr inbounds %struct.OSQPData, ptr %80, i32 0, i32 1
  %82 = load i64, ptr %81, align 8
  %83 = icmp eq i64 %82, 0
  br i1 %83, label %84, label %86

84:                                               ; preds = %77
  %85 = load ptr, ptr %13, align 8
  store double 0.000000e+00, ptr %85, align 8
  br label %92

86:                                               ; preds = %77
  %87 = load ptr, ptr %5, align 8
  %88 = load ptr, ptr %9, align 8
  %89 = load ptr, ptr %10, align 8
  %90 = call double @compute_prim_res(ptr noundef %87, ptr noundef %88, ptr noundef %89)
  %91 = load ptr, ptr %13, align 8
  store double %90, ptr %91, align 8
  br label %92

92:                                               ; preds = %86, %84
  %93 = load ptr, ptr %5, align 8
  %94 = load ptr, ptr %9, align 8
  %95 = load ptr, ptr %11, align 8
  %96 = call double @compute_dual_res(ptr noundef %93, ptr noundef %94, ptr noundef %95)
  %97 = load ptr, ptr %14, align 8
  store double %96, ptr %97, align 8
  %98 = load i64, ptr %7, align 8
  %99 = icmp ne i64 %98, 0
  br i1 %99, label %100, label %105

100:                                              ; preds = %92
  %101 = load ptr, ptr %5, align 8
  %102 = load ptr, ptr %9, align 8
  %103 = call double @compute_obj_val(ptr noundef %101, ptr noundef %102)
  %104 = load ptr, ptr %12, align 8
  store double %103, ptr %104, align 8
  br label %105

105:                                              ; preds = %100, %92
  %106 = load ptr, ptr %16, align 8
  %107 = getelementptr inbounds %struct.OSQPWorkspace_, ptr %106, i32 0, i32 29
  %108 = load ptr, ptr %107, align 8
  %109 = call double @osqp_toc(ptr noundef %108)
  %110 = load ptr, ptr %17, align 8
  store double %109, ptr %110, align 8
  %111 = load ptr, ptr %16, align 8
  %112 = getelementptr inbounds %struct.OSQPWorkspace_, ptr %111, i32 0, i32 33
  store i64 0, ptr %112, align 8
  ret void
}