; Function Attrs: nounwind uwtable
define void @update_info(ptr noundef readonly captures(none) %0, i64 noundef %1, i64 noundef %2, i64 noundef %3) local_unnamed_addr #0 {
  %5 = getelementptr inbounds nuw i8, ptr %0, i64 16
  %6 = load ptr, ptr %5, align 8
  %7 = getelementptr inbounds nuw i8, ptr %0, i64 24
  %8 = load ptr, ptr %7, align 8
  %.not = icmp eq i64 %3, 0
  br i1 %.not, label %18, label %9

9:                                                ; preds = %4
  %10 = getelementptr inbounds nuw i8, ptr %8, i64 16
  %11 = load ptr, ptr %10, align 8
  %12 = getelementptr inbounds nuw i8, ptr %11, i64 24
  %13 = load ptr, ptr %12, align 8
  %14 = getelementptr inbounds nuw i8, ptr %11, i64 40
  %15 = load ptr, ptr %14, align 8
  %16 = getelementptr inbounds nuw i8, ptr %11, i64 32
  %17 = load ptr, ptr %16, align 8
  br label %26

18:                                               ; preds = %4
  %19 = getelementptr inbounds nuw i8, ptr %8, i64 48
  %20 = load ptr, ptr %19, align 8
  %21 = getelementptr inbounds nuw i8, ptr %8, i64 56
  %22 = load ptr, ptr %21, align 8
  %23 = getelementptr inbounds nuw i8, ptr %8, i64 64
  %24 = load ptr, ptr %23, align 8
  %25 = getelementptr inbounds nuw i8, ptr %6, i64 72
  store i64 %1, ptr %25, align 8
  br label %26

26:                                               ; preds = %18, %9
  %.sink = phi i64 [ 104, %18 ], [ 120, %9 ]
  %.040 = phi ptr [ %22, %18 ], [ %15, %9 ]
  %.pn = phi ptr [ %6, %18 ], [ %11, %9 ]
  %.036 = phi ptr [ %24, %18 ], [ %17, %9 ]
  %.035 = phi ptr [ %20, %18 ], [ %13, %9 ]
  %.037 = getelementptr inbounds nuw i8, ptr %.pn, i64 64
  %.038 = getelementptr inbounds nuw i8, ptr %.pn, i64 56
  %.039 = getelementptr inbounds nuw i8, ptr %.pn, i64 48
  %27 = load ptr, ptr %8, align 8
  %28 = getelementptr inbounds nuw i8, ptr %27, i64 8
  %29 = load i64, ptr %28, align 8
  %30 = icmp eq i64 %29, 0
  br i1 %30, label %compute_prim_res.exit, label %31

31:                                               ; preds = %26
  %.val = load ptr, ptr %0, align 8
  %.val44 = load ptr, ptr %7, align 8
  %32 = load ptr, ptr %.val44, align 8
  %33 = getelementptr inbounds nuw i8, ptr %32, i64 24
  %34 = load ptr, ptr %33, align 8
  %35 = getelementptr inbounds nuw i8, ptr %.val44, i64 112
  %36 = load ptr, ptr %35, align 8
  tail call void @OSQPMatrix_Axpy(ptr noundef %34, ptr noundef %.035, ptr noundef %36, double noundef 1.000000e+00, double noundef 0.000000e+00) #9
  %37 = getelementptr inbounds nuw i8, ptr %.val44, i64 104
  %38 = load ptr, ptr %37, align 8
  %39 = load ptr, ptr %35, align 8
  tail call void @OSQPVectorf_minus(ptr noundef %38, ptr noundef %39, ptr noundef %.036) #9
  %40 = load ptr, ptr %37, align 8
  %41 = tail call double @OSQPVectorf_norm_inf(ptr noundef %40) #9
  %42 = getelementptr inbounds nuw i8, ptr %.val44, i64 208
  store double %41, ptr %42, align 8
  %43 = getelementptr inbounds nuw i8, ptr %.val, i64 48
  %44 = load i64, ptr %43, align 8
  %.not.i = icmp eq i64 %44, 0
  br i1 %.not.i, label %compute_prim_res.exit, label %45

45:                                               ; preds = %31
  %46 = getelementptr inbounds nuw i8, ptr %.val, i64 200
  %47 = load i64, ptr %46, align 8
  %.not16.i = icmp eq i64 %47, 0
  br i1 %.not16.i, label %48, label %compute_prim_res.exit

48:                                               ; preds = %45
  %49 = getelementptr inbounds nuw i8, ptr %.val44, i64 200
  %50 = load ptr, ptr %49, align 8
  %51 = getelementptr inbounds nuw i8, ptr %50, i64 40
  %52 = load ptr, ptr %51, align 8
  %53 = load ptr, ptr %37, align 8
  %54 = tail call double @OSQPVectorf_scaled_norm_inf(ptr noundef %52, ptr noundef %53) #9
  br label %compute_prim_res.exit

compute_prim_res.exit:                            ; preds = %48, %45, %31, %26
  %storemerge = phi double [ 0.000000e+00, %26 ], [ %54, %48 ], [ %41, %45 ], [ %41, %31 ]
  store double %storemerge, ptr %.038, align 8
  %.val45 = load ptr, ptr %0, align 8
  %.val46 = load ptr, ptr %7, align 8
  %55 = getelementptr inbounds nuw i8, ptr %.val46, i64 96
  %56 = load ptr, ptr %55, align 8
  %57 = load ptr, ptr %.val46, align 8
  %58 = getelementptr inbounds nuw i8, ptr %57, i64 32
  %59 = load ptr, ptr %58, align 8
  tail call void @OSQPVectorf_copy(ptr noundef %56, ptr noundef %59) #9
  %60 = load ptr, ptr %.val46, align 8
  %61 = getelementptr inbounds nuw i8, ptr %60, i64 16
  %62 = load ptr, ptr %61, align 8
  %63 = getelementptr inbounds nuw i8, ptr %.val46, i64 120
  %64 = load ptr, ptr %63, align 8
  tail call void @OSQPMatrix_Axpy(ptr noundef %62, ptr noundef %.035, ptr noundef %64, double noundef 1.000000e+00, double noundef 0.000000e+00) #9
  %65 = load ptr, ptr %55, align 8
  %66 = load ptr, ptr %63, align 8
  tail call void @OSQPVectorf_plus(ptr noundef %65, ptr noundef %65, ptr noundef %66) #9
  %67 = load ptr, ptr %.val46, align 8
  %68 = getelementptr inbounds nuw i8, ptr %67, i64 8
  %69 = load i64, ptr %68, align 8
  %.not.i47 = icmp eq i64 %69, 0
  br i1 %.not.i47, label %77, label %70

70:                                               ; preds = %compute_prim_res.exit
  %71 = getelementptr inbounds nuw i8, ptr %67, i64 24
  %72 = load ptr, ptr %71, align 8
  %73 = getelementptr inbounds nuw i8, ptr %.val46, i64 128
  %74 = load ptr, ptr %73, align 8
  tail call void @OSQPMatrix_Atxpy(ptr noundef %72, ptr noundef %.040, ptr noundef %74, double noundef 1.000000e+00, double noundef 0.000000e+00) #9
  %75 = load ptr, ptr %55, align 8
  %76 = load ptr, ptr %73, align 8
  tail call void @OSQPVectorf_plus(ptr noundef %75, ptr noundef %75, ptr noundef %76) #9
  br label %77

77:                                               ; preds = %70, %compute_prim_res.exit
  %78 = load ptr, ptr %55, align 8
  %79 = tail call double @OSQPVectorf_norm_inf(ptr noundef %78) #9
  %80 = getelementptr inbounds nuw i8, ptr %.val46, i64 216
  store double %79, ptr %80, align 8
  %81 = getelementptr inbounds nuw i8, ptr %.val45, i64 48
  %82 = load i64, ptr %81, align 8
  %.not26.i = icmp eq i64 %82, 0
  br i1 %.not26.i, label %compute_dual_res.exit, label %83

83:                                               ; preds = %77
  %84 = getelementptr inbounds nuw i8, ptr %.val45, i64 200
  %85 = load i64, ptr %84, align 8
  %.not27.i = icmp eq i64 %85, 0
  br i1 %.not27.i, label %86, label %compute_dual_res.exit

86:                                               ; preds = %83
  %87 = getelementptr inbounds nuw i8, ptr %.val46, i64 200
  %88 = load ptr, ptr %87, align 8
  %89 = getelementptr inbounds nuw i8, ptr %88, i64 24
  %90 = load double, ptr %89, align 8
  %91 = getelementptr inbounds nuw i8, ptr %88, i64 32
  %92 = load ptr, ptr %91, align 8
  %93 = load ptr, ptr %55, align 8
  %94 = tail call double @OSQPVectorf_scaled_norm_inf(ptr noundef %92, ptr noundef %93) #9
  %95 = fmul double %90, %94
  br label %compute_dual_res.exit

compute_dual_res.exit:                            ; preds = %77, %83, %86
  %.0.i48 = phi double [ %95, %86 ], [ %79, %83 ], [ %79, %77 ]
  store double %.0.i48, ptr %.037, align 8
  %.not43 = icmp eq i64 %2, 0
  br i1 %.not43, label %115, label %96

96:                                               ; preds = %compute_dual_res.exit
  %97 = load ptr, ptr %7, align 8
  %98 = getelementptr inbounds nuw i8, ptr %97, i64 120
  %99 = load ptr, ptr %98, align 8
  %100 = tail call double @OSQPVectorf_dot_prod(ptr noundef %99, ptr noundef %.035) #9
  %101 = load ptr, ptr %97, align 8
  %102 = getelementptr inbounds nuw i8, ptr %101, i64 32
  %103 = load ptr, ptr %102, align 8
  %104 = tail call double @OSQPVectorf_dot_prod(ptr noundef %103, ptr noundef %.035) #9
  %105 = tail call double @llvm.fmuladd.f64(double %100, double 5.000000e-01, double %104)
  %106 = load ptr, ptr %0, align 8
  %107 = getelementptr inbounds nuw i8, ptr %106, i64 48
  %108 = load i64, ptr %107, align 8
  %.not.i49 = icmp eq i64 %108, 0
  br i1 %.not.i49, label %compute_obj_val.exit, label %109

109:                                              ; preds = %96
  %110 = getelementptr inbounds nuw i8, ptr %97, i64 200
  %111 = load ptr, ptr %110, align 8
  %112 = getelementptr inbounds nuw i8, ptr %111, i64 24
  %113 = load double, ptr %112, align 8
  %114 = fmul double %105, %113
  br label %compute_obj_val.exit

compute_obj_val.exit:                             ; preds = %96, %109
  %.0.i50 = phi double [ %114, %109 ], [ %105, %96 ]
  store double %.0.i50, ptr %.039, align 8
  br label %115

115:                                              ; preds = %compute_obj_val.exit, %compute_dual_res.exit
  %116 = getelementptr inbounds nuw i8, ptr %6, i64 %.sink
  %117 = getelementptr inbounds nuw i8, ptr %8, i64 232
  %118 = load ptr, ptr %117, align 8
  %119 = tail call double @osqp_toc(ptr noundef %118) #9
  store double %119, ptr %116, align 8
  %120 = getelementptr inbounds nuw i8, ptr %8, i64 264
  store i64 0, ptr %120, align 8
  ret void
}